target datalayout = "e-m:e-p270:32:32-p271:32:32-p272:64:64-i64:64-i128:128-f80:128-n8:16:32:64-S128"
target triple = "x86_64-pc-linux-gnu"

%struct.Vmem = type { ptr, i64, i64 }
%struct.ParseContext_ = type { %struct.TokenData, i32, %union.SourceSpan, %union.SourceSpan, ptr, %struct.Lexer }
%struct.TokenData = type { ptr, i64, %union.anon.86 }
%union.anon.86 = type { %struct.anon.89 }
%struct.anon.89 = type { %struct.Int128_, i8 }
%struct.Int128_ = type { i64, i64 }
%union.SourceSpan = type { i64 }
%struct.Lexer = type { ptr, ptr, ptr, ptr, i32, i32, ptr, ptr, ptr, %struct.TokenData, %union.SourceSpan, i32, i32 }
%struct.Expr_ = type { ptr, %union.SourceSpan, i16, %union.anon.30 }
%union.anon.30 = type { %struct.ExprAnySwitch }
%struct.ExprAnySwitch = type { i8, %union.anon.32 }
%union.anon.32 = type { %struct.anon.33 }
%struct.anon.33 = type { ptr, %union.SourceSpan, ptr }
%struct.anon.0 = type { i16, i8, i8, i32 }
%struct.ExprCtArg = type { i16, i32 }

@poisoned_expr = external global ptr, align 8
@expr_arena = external global %struct.Vmem, align 8
@.str.22 = private unnamed_addr constant [15 x i8] c"Expected '%s'.\00", align 1

; Function Attrs: nounwind uwtable
define internal i64 @extend_span_with_token(i64 %0, i64 %1) #0 {
  %3 = alloca %union.SourceSpan, align 8
  %4 = alloca %union.SourceSpan, align 8
  %5 = alloca %union.SourceSpan, align 8
  %6 = getelementptr inbounds %union.SourceSpan, ptr %4, i32 0, i32 0
  store i64 %0, ptr %6, align 8
  %7 = getelementptr inbounds %union.SourceSpan, ptr %5, i32 0, i32 0
  store i64 %1, ptr %7, align 8
  %8 = getelementptr inbounds %struct.anon.0, ptr %4, i32 0, i32 3
  %9 = load i32, ptr %8, align 4
  %10 = getelementptr inbounds %struct.anon.0, ptr %5, i32 0, i32 3
  %11 = load i32, ptr %10, align 4
  %12 = icmp ne i32 %9, %11
  br i1 %12, label %13, label %14

13:                                               ; preds = %2
  call void @llvm.memcpy.p0.p0.i64(ptr align 8 %3, ptr align 8 %4, i64 8, i1 false)
  br label %28

14:                                               ; preds = %2
  %15 = getelementptr inbounds %struct.anon.0, ptr %5, i32 0, i32 2
  %16 = load i8, ptr %15, align 1
  %17 = zext i8 %16 to i32
  %18 = getelementptr inbounds %struct.anon.0, ptr %5, i32 0, i32 1
  %19 = load i8, ptr %18, align 2
  %20 = zext i8 %19 to i32
  %21 = add nsw i32 %17, %20
  %22 = getelementptr inbounds %struct.anon.0, ptr %4, i32 0, i32 2
  %23 = load i8, ptr %22, align 1
  %24 = zext i8 %23 to i32
  %25 = sub nsw i32 %21, %24
  %26 = trunc i32 %25 to i8
  %27 = getelementptr inbounds %struct.anon.0, ptr %4, i32 0, i32 1
  store i8 %26, ptr %27, align 2
  call void @llvm.memcpy.p0.p0.i64(ptr align 8 %3, ptr align 8 %4, i64 8, i1 false)
  br label %28

28:                                               ; preds = %14, %13
  %29 = getelementptr inbounds %union.SourceSpan, ptr %3, i32 0, i32 0
  %30 = load i64, ptr %29, align 8
  ret i64 %30
}

; Function Attrs: nounwind uwtable
define internal i32 @exprid(ptr noundef %0) #0 {
  %2 = alloca ptr, align 8
  store ptr %0, ptr %2, align 8
  %3 = load ptr, ptr %2, align 8
  %4 = load ptr, ptr @expr_arena, align 8
  %5 = ptrtoint ptr %3 to i64
  %6 = ptrtoint ptr %4 to i64
  %7 = sub i64 %5, %6
  %8 = sdiv exact i64 %7, 56
  %9 = trunc i64 %8 to i32
  ret i32 %9
}

; Function Attrs: nounwind uwtable
define dso_local ptr @parse_expr(ptr noundef %0) #0 {
  %2 = alloca ptr, align 8
  store ptr %0, ptr %2, align 8
  %3 = load ptr, ptr %2, align 8
  %4 = call ptr @parse_precedence(ptr noundef %3, i32 noundef 1)
  ret ptr %4
}

; Function Attrs: nounwind uwtable
define internal ptr @parse_ct_arg(ptr noundef %0, ptr noundef %1) #0 {
  %3 = alloca ptr, align 8
  %4 = alloca i32, align 4
  %5 = alloca i1, align 1
  %6 = alloca ptr, align 8
  %7 = alloca i32, align 4
  %8 = alloca ptr, align 8
  %9 = alloca i32, align 4
  %10 = alloca i1, align 1
  %11 = alloca ptr, align 8
  %12 = alloca i32, align 4
  %13 = alloca ptr, align 8
  %14 = alloca ptr, align 8
  %15 = alloca ptr, align 8
  %16 = alloca ptr, align 8
  %17 = alloca ptr, align 8
  %18 = alloca i32, align 4
  %19 = alloca ptr, align 8
  %20 = alloca %union.SourceSpan, align 8
  store ptr %0, ptr %15, align 8
  store ptr %1, ptr %16, align 8
  %21 = load ptr, ptr %15, align 8
  %22 = getelementptr inbounds %struct.ParseContext_, ptr %21, i32 0, i32 2
  %23 = getelementptr inbounds %union.SourceSpan, ptr %22, i32 0, i32 0
  %24 = load i64, ptr %23, align 8
  %25 = call ptr @expr_new(i32 noundef 16, i64 %24)
  store ptr %25, ptr %17, align 8
  %26 = load ptr, ptr %15, align 8
  %27 = getelementptr inbounds %struct.ParseContext_, ptr %26, i32 0, i32 1
  %28 = load i32, ptr %27, align 8
  %29 = load ptr, ptr %17, align 8
  %30 = getelementptr inbounds %struct.Expr_, ptr %29, i32 0, i32 3
  %31 = trunc i32 %28 to i16
  store i16 %31, ptr %30, align 8
  %32 = zext i16 %31 to i32
  store i32 %32, ptr %18, align 4
  %33 = load ptr, ptr %15, align 8
  call void @advance(ptr noundef %33)
  %34 = load i32, ptr %18, align 4
  %35 = icmp ne i32 %34, 179
  br i1 %35, label %36, label %105

36:                                               ; preds = %2
  br label %37

37:                                               ; preds = %36
  %38 = load ptr, ptr %15, align 8
  store ptr %38, ptr %6, align 8
  store i32 19, ptr %7, align 4
  %39 = load ptr, ptr %6, align 8
  %40 = load i32, ptr %7, align 4
  store ptr %39, ptr %3, align 8
  store i32 %40, ptr %4, align 4
  %41 = load ptr, ptr %3, align 8
  %42 = getelementptr inbounds %struct.ParseContext_, ptr %41, i32 0, i32 1
  %43 = load i32, ptr %42, align 8
  %44 = load i32, ptr %4, align 4
  %45 = icmp eq i32 %43, %44
  br i1 %45, label %46, label %47

46:                                               ; preds = %37
  store i1 true, ptr %5, align 1
  br label %53

47:                                               ; preds = %37
  %48 = load ptr, ptr %6, align 8
  %49 = getelementptr inbounds %struct.ParseContext_, ptr %48, i32 0, i32 2
  %50 = load i32, ptr %7, align 4
  %51 = call ptr @token_type_to_string(i32 noundef %50) #5
  %52 = load i64, ptr %49, align 8
  call void (i64, ptr, ...) @sema_error_at(i64 %52, ptr noundef @.str.22, ptr noundef %51) #5
  store i1 false, ptr %5, align 1
  br label %53

53:                                               ; preds = %47, %46
  %54 = load i1, ptr %5, align 1
  br i1 %54, label %57, label %55

55:                                               ; preds = %53
  %56 = load ptr, ptr @poisoned_expr, align 8
  store ptr %56, ptr %14, align 8
  br label %121

57:                                               ; preds = %53
  %58 = load ptr, ptr %15, align 8
  call void @advance(ptr noundef %58)
  br label %59

59:                                               ; preds = %57
  %60 = load ptr, ptr %15, align 8
  %61 = call ptr @parse_expr(ptr noundef %60)
  store ptr %61, ptr %19, align 8
  %62 = load ptr, ptr %19, align 8
  store ptr %62, ptr %13, align 8
  %63 = load ptr, ptr %13, align 8
  %64 = icmp eq ptr %63, null
  br i1 %64, label %72, label %65

65:                                               ; preds = %59
  %66 = load ptr, ptr %13, align 8
  %67 = getelementptr inbounds %struct.Expr_, ptr %66, i32 0, i32 2
  %68 = load i16, ptr %67, align 8
  %69 = and i16 %68, 255
  %70 = zext i16 %69 to i32
  %71 = icmp ne i32 %70, 0
  br label %72

72:                                               ; preds = %65, %59
  %73 = phi i1 [ true, %59 ], [ %71, %65 ]
  br i1 %73, label %76, label %74

74:                                               ; preds = %72
  %75 = load ptr, ptr @poisoned_expr, align 8
  store ptr %75, ptr %14, align 8
  br label %121

76:                                               ; preds = %72
  %77 = load ptr, ptr %19, align 8
  %78 = call i32 @exprid(ptr noundef %77)
  %79 = load ptr, ptr %17, align 8
  %80 = getelementptr inbounds %struct.Expr_, ptr %79, i32 0, i32 3
  %81 = getelementptr inbounds %struct.ExprCtArg, ptr %80, i32 0, i32 1
  store i32 %78, ptr %81, align 4
  br label %82

82:                                               ; preds = %76
  %83 = load ptr, ptr %15, align 8
  store ptr %83, ptr %11, align 8
  store i32 26, ptr %12, align 4
  %84 = load ptr, ptr %11, align 8
  %85 = load i32, ptr %12, align 4
  store ptr %84, ptr %8, align 8
  store i32 %85, ptr %9, align 4
  %86 = load ptr, ptr %8, align 8
  %87 = getelementptr inbounds %struct.ParseContext_, ptr %86, i32 0, i32 1
  %88 = load i32, ptr %87, align 8
  %89 = load i32, ptr %9, align 4
  %90 = icmp eq i32 %88, %89
  br i1 %90, label %91, label %92

91:                                               ; preds = %82
  store i1 true, ptr %10, align 1
  br label %98

92:                                               ; preds = %82
  %93 = load ptr, ptr %11, align 8
  %94 = getelementptr inbounds %struct.ParseContext_, ptr %93, i32 0, i32 2
  %95 = load i32, ptr %12, align 4
  %96 = call ptr @token_type_to_string(i32 noundef %95) #5
  %97 = load i64, ptr %94, align 8
  call void (i64, ptr, ...) @sema_error_at(i64 %97, ptr noundef @.str.22, ptr noundef %96) #5
  store i1 false, ptr %10, align 1
  br label %98

98:                                               ; preds = %92, %91
  %99 = load i1, ptr %10, align 1
  br i1 %99, label %102, label %100

100:                                              ; preds = %98
  %101 = load ptr, ptr @poisoned_expr, align 8
  store ptr %101, ptr %14, align 8
  br label %121

102:                                              ; preds = %98
  %103 = load ptr, ptr %15, align 8
  call void @advance(ptr noundef %103)
  br label %104

104:                                              ; preds = %102
  br label %105

105:                                              ; preds = %104, %2
  br label %106

106:                                              ; preds = %105
  %107 = load ptr, ptr %17, align 8
  %108 = getelementptr inbounds %struct.Expr_, ptr %107, i32 0, i32 1
  %109 = load ptr, ptr %17, align 8
  %110 = getelementptr inbounds %struct.Expr_, ptr %109, i32 0, i32 1
  %111 = load ptr, ptr %15, align 8
  %112 = getelementptr inbounds %struct.ParseContext_, ptr %111, i32 0, i32 3
  %113 = getelementptr inbounds %union.SourceSpan, ptr %110, i32 0, i32 0
  %114 = load i64, ptr %113, align 8
  %115 = getelementptr inbounds %union.SourceSpan, ptr %112, i32 0, i32 0
  %116 = load i64, ptr %115, align 8
  %117 = call i64 @extend_span_with_token(i64 %114, i64 %116)
  %118 = getelementptr inbounds %union.SourceSpan, ptr %20, i32 0, i32 0
  store i64 %117, ptr %118, align 8
  call void @llvm.memcpy.p0.p0.i64(ptr align 8 %108, ptr align 8 %20, i64 8, i1 false)
  br label %119

119:                                              ; preds = %106
  %120 = load ptr, ptr %17, align 8
  store ptr %120, ptr %14, align 8
  br label %121

121:                                              ; preds = %119, %100, %74, %55
  %122 = load ptr, ptr %14, align 8
  ret ptr %122
}