; Function Attrs: nounwind uwtable
define internal ptr @parse_ct_arg(ptr noundef %0, ptr nocapture readnone %1) #1 {
  %3 = getelementptr inbounds i8, ptr %0, i64 48
  %4 = load i64, ptr %3, align 8
  %5 = tail call ptr @expr_new(i32 noundef 16, i64 %4) #8
  %6 = getelementptr inbounds i8, ptr %0, i64 40
  %7 = load i32, ptr %6, align 8
  %8 = getelementptr inbounds i8, ptr %5, i64 24
  %9 = trunc i32 %7 to i16
  store i16 %9, ptr %8, align 8
  %10 = and i32 %7, 65535
  tail call void @advance(ptr noundef %0) #8
  %.not = icmp eq i32 %10, 179
  br i1 %.not, label %36, label %11

11:                                               ; preds = %2
  %12 = load i32, ptr %6, align 8
  %13 = icmp eq i32 %12, 19
  br i1 %13, label %.critedge39, label %14

14:                                               ; preds = %11
  %15 = tail call ptr @token_type_to_string(i32 noundef 19) #8
  %16 = load i64, ptr %3, align 8
  tail call void (i64, ptr, ...) @sema_error_at(i64 %16, ptr noundef nonnull @.str.22, ptr noundef %15) #8
  %17 = load ptr, ptr @poisoned_expr, align 8
  br label %51

.critedge39:                                      ; preds = %11
  tail call void @advance(ptr noundef nonnull %0) #8
  %18 = tail call fastcc ptr @parse_precedence(ptr noundef nonnull %0, i32 noundef 1)
  %19 = icmp eq ptr %18, null
  br i1 %19, label %.critedge, label %20

20:                                               ; preds = %.critedge39
  %21 = getelementptr inbounds i8, ptr %18, i64 16
  %22 = load i16, ptr %21, align 8
  %23 = and i16 %22, 255
  %.not37 = icmp eq i16 %23, 0
  br i1 %.not37, label %25, label %.split

.split:                                           ; preds = %20
  %24 = ptrtoint ptr %18 to i64
  br label %.critedge

25:                                               ; preds = %20
  %26 = load ptr, ptr @poisoned_expr, align 8
  br label %51

.critedge:                                        ; preds = %.critedge39, %.split
  %.sink = phi i64 [ %24, %.split ], [ 0, %.critedge39 ]
  %.sink43 = load ptr, ptr @expr_arena, align 8
  %27 = ptrtoint ptr %.sink43 to i64
  %28 = sub i64 %.sink, %27
  %phi.call.in = sdiv exact i64 %28, 56
  %phi.call = trunc i64 %phi.call.in to i32
  %29 = getelementptr inbounds i8, ptr %5, i64 28
  store i32 %phi.call, ptr %29, align 4
  %30 = load i32, ptr %6, align 8
  %31 = icmp eq i32 %30, 26
  br i1 %31, label %.critedge41, label %32

32:                                               ; preds = %.critedge
  %33 = tail call ptr @token_type_to_string(i32 noundef 26) #8
  %34 = load i64, ptr %3, align 8
  tail call void (i64, ptr, ...) @sema_error_at(i64 %34, ptr noundef nonnull @.str.22, ptr noundef %33) #8
  %35 = load ptr, ptr @poisoned_expr, align 8
  br label %51

.critedge41:                                      ; preds = %.critedge
  tail call void @advance(ptr noundef nonnull %0) #8
  br label %36

36:                                               ; preds = %2, %.critedge41
  %37 = getelementptr inbounds i8, ptr %5, i64 8
  %38 = getelementptr inbounds i8, ptr %0, i64 56
  %39 = load i64, ptr %37, align 8
  %40 = load i64, ptr %38, align 8
  %.not.unshifted.i = xor i64 %40, %39
  %.not.i = icmp ult i64 %.not.unshifted.i, 4294967296
  br i1 %.not.i, label %42, label %41

41:                                               ; preds = %36
  %.sroa.33.0.extract.shift.i = lshr i64 %39, 16
  br label %extend_span_with_token.exit

42:                                               ; preds = %36
  %.sroa.4.0.extract.shift.i = lshr i64 %39, 24
  %43 = trunc i64 %40 to i32
  %44 = lshr i32 %43, 24
  %45 = lshr i32 %43, 16
  %46 = trunc i64 %.sroa.4.0.extract.shift.i to i32
  %47 = sub i32 %45, %46
  %48 = add i32 %47, %44
  %49 = zext i32 %48 to i64
  br label %extend_span_with_token.exit

extend_span_with_token.exit:                      ; preds = %41, %42
  %.sroa.311.0.i = phi i64 [ %.sroa.33.0.extract.shift.i, %41 ], [ %49, %42 ]
  %.sroa.311.0.insert.ext.i = shl nuw i64 %.sroa.311.0.i, 16
  %.sroa.311.0.insert.shift.i = and i64 %.sroa.311.0.insert.ext.i, 16711680
  %50 = and i64 %39, -16711681
  %.sroa.010.0.insert.insert.i = or disjoint i64 %.sroa.311.0.insert.shift.i, %50
  store i64 %.sroa.010.0.insert.insert.i, ptr %37, align 8
  br label %51

51:                                               ; preds = %extend_span_with_token.exit, %32, %25, %14
  %.034 = phi ptr [ %5, %extend_span_with_token.exit ], [ %35, %32 ], [ %26, %25 ], [ %17, %14 ]
  ret ptr %.034
}